target datalayout = "e-m:e-p270:32:32-p271:32:32-p272:64:64-i64:64-i128:128-f80:128-n8:16:32:64-S128"
target triple = "x86_64-pc-linux-gnu"

%struct.Aes = type { [60 x i32], i32, i32, [8 x i8], [4 x i32], [4 x i32], [2 x i32], i32, [4 x i8], %struct.Gcm, ptr, [8 x i8] }
%struct.Gcm = type { [16 x i8], [32 x [16 x i8]] }

@devId = internal global i32 -2, align 4

; Function Attrs: nounwind uwtable
define internal i32 @aesgcm_default_test_helper(ptr noundef %0, i32 noundef %1, ptr noundef %2, i32 noundef %3, ptr noundef %4, i32 noundef %5, ptr noundef %6, i32 noundef %7, ptr noundef %8, i32 noundef %9, ptr noundef %10, i32 noundef %11) #0 {
  %13 = alloca ptr, align 8
  %14 = alloca i32, align 4
  %15 = alloca ptr, align 8
  %16 = alloca i32, align 4
  %17 = alloca ptr, align 8
  %18 = alloca i32, align 4
  %19 = alloca ptr, align 8
  %20 = alloca i32, align 4
  %21 = alloca ptr, align 8
  %22 = alloca i32, align 4
  %23 = alloca ptr, align 8
  %24 = alloca i32, align 4
  %25 = alloca i32, align 4
  %26 = alloca [1 x %struct.Aes], align 16
  %27 = alloca [1 x %struct.Aes], align 16
  %28 = alloca [16 x i8], align 16
  %29 = alloca [48 x i8], align 16
  %30 = alloca [48 x i8], align 16
  store ptr %0, ptr %13, align 8, !tbaa !15
  store i32 %1, ptr %14, align 4, !tbaa !14
  store ptr %2, ptr %15, align 8, !tbaa !15
  store i32 %3, ptr %16, align 4, !tbaa !14
  store ptr %4, ptr %17, align 8, !tbaa !15
  store i32 %5, ptr %18, align 4, !tbaa !14
  store ptr %6, ptr %19, align 8, !tbaa !15
  store i32 %7, ptr %20, align 4, !tbaa !14
  store ptr %8, ptr %21, align 8, !tbaa !15
  store i32 %9, ptr %22, align 4, !tbaa !14
  store ptr %10, ptr %23, align 8, !tbaa !15
  store i32 %11, ptr %24, align 4, !tbaa !14
  call void @llvm.lifetime.start.p0(i64 4, ptr %25) #10
  call void @llvm.lifetime.start.p0(i64 848, ptr %26) #10
  call void @llvm.lifetime.start.p0(i64 848, ptr %27) #10
  call void @llvm.lifetime.start.p0(i64 16, ptr %28) #10
  call void @llvm.lifetime.start.p0(i64 48, ptr %29) #10
  call void @llvm.lifetime.start.p0(i64 48, ptr %30) #10
  %31 = getelementptr inbounds [16 x i8], ptr %28, i64 0, i64 0
  call void @llvm.memset.p0.i64(ptr align 16 %31, i8 0, i64 16, i1 false)
  %32 = getelementptr inbounds [48 x i8], ptr %30, i64 0, i64 0
  call void @llvm.memset.p0.i64(ptr align 16 %32, i8 0, i64 48, i1 false)
  %33 = getelementptr inbounds [48 x i8], ptr %29, i64 0, i64 0
  call void @llvm.memset.p0.i64(ptr align 16 %33, i8 0, i64 48, i1 false)
  %34 = getelementptr inbounds [1 x %struct.Aes], ptr %26, i64 0, i64 0
  call void @llvm.memset.p0.i64(ptr align 16 %34, i8 0, i64 848, i1 false)
  %35 = getelementptr inbounds [1 x %struct.Aes], ptr %27, i64 0, i64 0
  call void @llvm.memset.p0.i64(ptr align 16 %35, i8 0, i64 848, i1 false)
  %36 = getelementptr inbounds [1 x %struct.Aes], ptr %26, i64 0, i64 0
  %37 = load i32, ptr @devId, align 4, !tbaa !14
  %38 = call i32 @wc_AesInit(ptr noundef %36, ptr noundef null, i32 noundef %37)
  store i32 %38, ptr %25, align 4, !tbaa !14
  %39 = load i32, ptr %25, align 4, !tbaa !14
  %40 = icmp ne i32 %39, 0
  br i1 %40, label %41, label %56

41:                                               ; preds = %12
  br label %42

42:                                               ; preds = %41
  %43 = load i32, ptr %25, align 4, !tbaa !14
  %44 = sub nsw i32 0, %43
  %45 = zext i32 %44 to i64
  %46 = and i64 %45, 2047
  %47 = trunc i64 %46 to i32
  %48 = sext i32 %47 to i64
  %49 = mul nsw i64 %48, 100000
  %50 = add nsw i64 15023, %49
  %51 = add nsw i64 %50, 536870912
  %52 = sub nsw i64 0, %51
  %53 = trunc i64 %52 to i32
  store i32 %53, ptr %25, align 4, !tbaa !14
  br label %221

54:                                               ; No predecessors!
  br label %55

55:                                               ; preds = %54
  br label %56

56:                                               ; preds = %55, %12
  %57 = getelementptr inbounds [1 x %struct.Aes], ptr %27, i64 0, i64 0
  %58 = load i32, ptr @devId, align 4, !tbaa !14
  %59 = call i32 @wc_AesInit(ptr noundef %57, ptr noundef null, i32 noundef %58)
  store i32 %59, ptr %25, align 4, !tbaa !14
  %60 = load i32, ptr %25, align 4, !tbaa !14
  %61 = icmp ne i32 %60, 0
  br i1 %61, label %62, label %77

62:                                               ; preds = %56
  br label %63

63:                                               ; preds = %62
  %64 = load i32, ptr %25, align 4, !tbaa !14
  %65 = sub nsw i32 0, %64
  %66 = zext i32 %65 to i64
  %67 = and i64 %66, 2047
  %68 = trunc i64 %67 to i32
  %69 = sext i32 %68 to i64
  %70 = mul nsw i64 %69, 100000
  %71 = add nsw i64 15026, %70
  %72 = add nsw i64 %71, 536870912
  %73 = sub nsw i64 0, %72
  %74 = trunc i64 %73 to i32
  store i32 %74, ptr %25, align 4, !tbaa !14
  br label %221

75:                                               ; No predecessors!
  br label %76

76:                                               ; preds = %75
  br label %77

77:                                               ; preds = %76, %56
  %78 = getelementptr inbounds [1 x %struct.Aes], ptr %26, i64 0, i64 0
  %79 = load ptr, ptr %13, align 8, !tbaa !15
  %80 = load i32, ptr %14, align 4, !tbaa !14
  %81 = call i32 @wc_AesGcmSetKey(ptr noundef %78, ptr noundef %79, i32 noundef %80)
  store i32 %81, ptr %25, align 4, !tbaa !14
  %82 = load i32, ptr %25, align 4, !tbaa !14
  %83 = icmp ne i32 %82, 0
  br i1 %83, label %84, label %99

84:                                               ; preds = %77
  br label %85

85:                                               ; preds = %84
  %86 = load i32, ptr %25, align 4, !tbaa !14
  %87 = sub nsw i32 0, %86
  %88 = zext i32 %87 to i64
  %89 = and i64 %88, 2047
  %90 = trunc i64 %89 to i32
  %91 = sext i32 %90 to i64
  %92 = mul nsw i64 %91, 100000
  %93 = add nsw i64 15031, %92
  %94 = add nsw i64 %93, 536870912
  %95 = sub nsw i64 0, %94
  %96 = trunc i64 %95 to i32
  store i32 %96, ptr %25, align 4, !tbaa !14
  br label %221

97:                                               ; No predecessors!
  br label %98

98:                                               ; preds = %97
  br label %99

99:                                               ; preds = %98, %77
  %100 = getelementptr inbounds [1 x %struct.Aes], ptr %26, i64 0, i64 0
  %101 = getelementptr inbounds [48 x i8], ptr %30, i64 0, i64 0
  %102 = load ptr, ptr %17, align 8, !tbaa !15
  %103 = load i32, ptr %18, align 4, !tbaa !14
  %104 = load ptr, ptr %15, align 8, !tbaa !15
  %105 = load i32, ptr %16, align 4, !tbaa !14
  %106 = getelementptr inbounds [16 x i8], ptr %28, i64 0, i64 0
  %107 = load i32, ptr %24, align 4, !tbaa !14
  %108 = load ptr, ptr %21, align 8, !tbaa !15
  %109 = load i32, ptr %22, align 4, !tbaa !14
  %110 = call i32 @wc_AesGcmEncrypt(ptr noundef %100, ptr noundef %101, ptr noundef %102, i32 noundef %103, ptr noundef %104, i32 noundef %105, ptr noundef %106, i32 noundef %107, ptr noundef %108, i32 noundef %109)
  store i32 %110, ptr %25, align 4, !tbaa !14
  %111 = load i32, ptr %25, align 4, !tbaa !14
  %112 = icmp ne i32 %111, 0
  br i1 %112, label %113, label %128

113:                                              ; preds = %99
  br label %114

114:                                              ; preds = %113
  %115 = load i32, ptr %25, align 4, !tbaa !14
  %116 = sub nsw i32 0, %115
  %117 = zext i32 %116 to i64
  %118 = and i64 %117, 2047
  %119 = trunc i64 %118 to i32
  %120 = sext i32 %119 to i64
  %121 = mul nsw i64 %120, 100000
  %122 = add nsw i64 15040, %121
  %123 = add nsw i64 %122, 536870912
  %124 = sub nsw i64 0, %123
  %125 = trunc i64 %124 to i32
  store i32 %125, ptr %25, align 4, !tbaa !14
  br label %221

126:                                              ; No predecessors!
  br label %127

127:                                              ; preds = %126
  br label %128

128:                                              ; preds = %127, %99
  %129 = load ptr, ptr %19, align 8, !tbaa !15
  %130 = icmp ne ptr %129, null
  br i1 %130, label %131, label %143

131:                                              ; preds = %128
  %132 = load ptr, ptr %19, align 8, !tbaa !15
  %133 = getelementptr inbounds [48 x i8], ptr %30, i64 0, i64 0
  %134 = load i32, ptr %20, align 4, !tbaa !14
  %135 = zext i32 %134 to i64
  %136 = call i32 @memcmp(ptr noundef %132, ptr noundef %133, i64 noundef %135) #11
  %137 = icmp ne i32 %136, 0
  br i1 %137, label %138, label %142

138:                                              ; preds = %131
  br label %139

139:                                              ; preds = %138
  store i32 -15043, ptr %25, align 4, !tbaa !14
  br label %221

140:                                              ; No predecessors!
  br label %141

141:                                              ; preds = %140
  br label %142

142:                                              ; preds = %141, %131
  br label %143

143:                                              ; preds = %142, %128
  %144 = load ptr, ptr %23, align 8, !tbaa !15
  %145 = getelementptr inbounds [16 x i8], ptr %28, i64 0, i64 0
  %146 = load i32, ptr %24, align 4, !tbaa !14
  %147 = sext i32 %146 to i64
  %148 = call i32 @memcmp(ptr noundef %144, ptr noundef %145, i64 noundef %147) #11
  %149 = icmp ne i32 %148, 0
  br i1 %149, label %150, label %154

150:                                              ; preds = %143
  br label %151

151:                                              ; preds = %150
  store i32 -15046, ptr %25, align 4, !tbaa !14
  br label %221

152:                                              ; No predecessors!
  br label %153

153:                                              ; preds = %152
  br label %154

154:                                              ; preds = %153, %143
  %155 = getelementptr inbounds [1 x %struct.Aes], ptr %27, i64 0, i64 0
  %156 = load ptr, ptr %13, align 8, !tbaa !15
  %157 = load i32, ptr %14, align 4, !tbaa !14
  %158 = call i32 @wc_AesGcmSetKey(ptr noundef %155, ptr noundef %156, i32 noundef %157)
  store i32 %158, ptr %25, align 4, !tbaa !14
  %159 = load i32, ptr %25, align 4, !tbaa !14
  %160 = icmp ne i32 %159, 0
  br i1 %160, label %161, label %176

161:                                              ; preds = %154
  br label %162

162:                                              ; preds = %161
  %163 = load i32, ptr %25, align 4, !tbaa !14
  %164 = sub nsw i32 0, %163
  %165 = zext i32 %164 to i64
  %166 = and i64 %165, 2047
  %167 = trunc i64 %166 to i32
  %168 = sext i32 %167 to i64
  %169 = mul nsw i64 %168, 100000
  %170 = add nsw i64 15069, %169
  %171 = add nsw i64 %170, 536870912
  %172 = sub nsw i64 0, %171
  %173 = trunc i64 %172 to i32
  store i32 %173, ptr %25, align 4, !tbaa !14
  br label %221

174:                                              ; No predecessors!
  br label %175

175:                                              ; preds = %174
  br label %176

176:                                              ; preds = %175, %154
  %177 = getelementptr inbounds [1 x %struct.Aes], ptr %27, i64 0, i64 0
  %178 = getelementptr inbounds [48 x i8], ptr %29, i64 0, i64 0
  %179 = getelementptr inbounds [48 x i8], ptr %30, i64 0, i64 0
  %180 = load i32, ptr %20, align 4, !tbaa !14
  %181 = load ptr, ptr %15, align 8, !tbaa !15
  %182 = load i32, ptr %16, align 4, !tbaa !14
  %183 = getelementptr inbounds [16 x i8], ptr %28, i64 0, i64 0
  %184 = load i32, ptr %24, align 4, !tbaa !14
  %185 = load ptr, ptr %21, align 8, !tbaa !15
  %186 = load i32, ptr %22, align 4, !tbaa !14
  %187 = call i32 @wc_AesGcmDecrypt(ptr noundef %177, ptr noundef %178, ptr noundef %179, i32 noundef %180, ptr noundef %181, i32 noundef %182, ptr noundef %183, i32 noundef %184, ptr noundef %185, i32 noundef %186)
  store i32 %187, ptr %25, align 4, !tbaa !14
  %188 = load i32, ptr %25, align 4, !tbaa !14
  %189 = icmp ne i32 %188, 0
  br i1 %189, label %190, label %205

190:                                              ; preds = %176
  br label %191

191:                                              ; preds = %190
  %192 = load i32, ptr %25, align 4, !tbaa !14
  %193 = sub nsw i32 0, %192
  %194 = zext i32 %193 to i64
  %195 = and i64 %194, 2047
  %196 = trunc i64 %195 to i32
  %197 = sext i32 %196 to i64
  %198 = mul nsw i64 %197, 100000
  %199 = add nsw i64 15077, %198
  %200 = add nsw i64 %199, 536870912
  %201 = sub nsw i64 0, %200
  %202 = trunc i64 %201 to i32
  store i32 %202, ptr %25, align 4, !tbaa !14
  br label %221

203:                                              ; No predecessors!
  br label %204

204:                                              ; preds = %203
  br label %205

205:                                              ; preds = %204, %176
  %206 = load ptr, ptr %17, align 8, !tbaa !15
  %207 = icmp ne ptr %206, null
  br i1 %207, label %208, label %220

208:                                              ; preds = %205
  %209 = load ptr, ptr %17, align 8, !tbaa !15
  %210 = getelementptr inbounds [48 x i8], ptr %29, i64 0, i64 0
  %211 = load i32, ptr %18, align 4, !tbaa !14
  %212 = sext i32 %211 to i64
  %213 = call i32 @memcmp(ptr noundef %209, ptr noundef %210, i64 noundef %212) #11
  %214 = icmp ne i32 %213, 0
  br i1 %214, label %215, label %219

215:                                              ; preds = %208
  br label %216

216:                                              ; preds = %215
  store i32 -15080, ptr %25, align 4, !tbaa !14
  br label %221

217:                                              ; No predecessors!
  br label %218

218:                                              ; preds = %217
  br label %219

219:                                              ; preds = %218, %208
  br label %220

220:                                              ; preds = %219, %205
  store i32 0, ptr %25, align 4, !tbaa !14
  br label %221

221:                                              ; preds = %220, %216, %191, %162, %151, %139, %114, %85, %63, %42
  %222 = getelementptr inbounds [1 x %struct.Aes], ptr %26, i64 0, i64 0
  call void @wc_AesFree(ptr noundef %222)
  %223 = getelementptr inbounds [1 x %struct.Aes], ptr %27, i64 0, i64 0
  call void @wc_AesFree(ptr noundef %223)
  %224 = load i32, ptr %25, align 4, !tbaa !14
  call void @llvm.lifetime.end.p0(i64 48, ptr %30) #10
  call void @llvm.lifetime.end.p0(i64 48, ptr %29) #10
  call void @llvm.lifetime.end.p0(i64 16, ptr %28) #10
  call void @llvm.lifetime.end.p0(i64 848, ptr %27) #10
  call void @llvm.lifetime.end.p0(i64 848, ptr %26) #10
  call void @llvm.lifetime.end.p0(i64 4, ptr %25) #10
  ret i32 %224
}