; Function Attrs: nounwind uwtable
define internal fastcc range(i32 -741585989, 1) i32 @aesgcm_default_test_helper(ptr noundef nonnull %0, ptr noundef nonnull %1, ptr noundef %2, i32 noundef range(i32 0, 33) %3, ptr noundef readonly captures(address_is_null) %4, i32 noundef range(i32 0, 33) %5, ptr noundef %6, i32 noundef range(i32 0, 17) %7, ptr noundef nonnull readonly captures(none) %8, i32 noundef range(i32 12, 17) %9) unnamed_addr #0 {
  %11 = alloca [1 x %struct.Aes], align 16
  %12 = alloca [1 x %struct.Aes], align 16
  %13 = alloca [16 x i8], align 16
  %14 = alloca [48 x i8], align 16
  %15 = alloca [48 x i8], align 16
  call void @llvm.lifetime.start.p0(i64 848, ptr nonnull %11) #19
  call void @llvm.lifetime.start.p0(i64 848, ptr nonnull %12) #19
  call void @llvm.lifetime.start.p0(i64 16, ptr nonnull %13) #19
  call void @llvm.lifetime.start.p0(i64 48, ptr nonnull %14) #19
  call void @llvm.lifetime.start.p0(i64 48, ptr nonnull %15) #19
  call void @llvm.memset.p0.i64(ptr noundef nonnull align 16 dereferenceable(16) %13, i8 0, i64 16, i1 false)
  call void @llvm.memset.p0.i64(ptr noundef nonnull align 16 dereferenceable(48) %15, i8 0, i64 48, i1 false)
  call void @llvm.memset.p0.i64(ptr noundef nonnull align 16 dereferenceable(48) %14, i8 0, i64 48, i1 false)
  call void @llvm.memset.p0.i64(ptr noundef nonnull align 16 dereferenceable(848) %11, i8 0, i64 848, i1 false)
  call void @llvm.memset.p0.i64(ptr noundef nonnull align 16 dereferenceable(848) %12, i8 0, i64 848, i1 false)
  %16 = call i32 @wc_AesInit(ptr noundef nonnull %11, ptr noundef null, i32 noundef -2) #19
  %.not = icmp eq i32 %16, 0
  br i1 %.not, label %21, label %17

17:                                               ; preds = %10
  %18 = sub nsw i32 0, %16
  %19 = and i32 %18, 2047
  %narrow.neg73 = mul nsw i32 %19, -100000
  %20 = add nsw i32 %narrow.neg73, -536885935
  br label %60

21:                                               ; preds = %10
  %22 = call i32 @wc_AesInit(ptr noundef nonnull %12, ptr noundef null, i32 noundef -2) #19
  %.not45 = icmp eq i32 %22, 0
  br i1 %.not45, label %27, label %23

23:                                               ; preds = %21
  %24 = sub nsw i32 0, %22
  %25 = and i32 %24, 2047
  %narrow.neg70 = mul nsw i32 %25, -100000
  %26 = add nsw i32 %narrow.neg70, -536885938
  br label %60

27:                                               ; preds = %21
  %28 = call i32 @wc_AesGcmSetKey(ptr noundef nonnull %11, ptr noundef nonnull %0, i32 noundef 16) #19
  %.not46 = icmp eq i32 %28, 0
  br i1 %.not46, label %33, label %29

29:                                               ; preds = %27
  %30 = sub nsw i32 0, %28
  %31 = and i32 %30, 2047
  %narrow.neg67 = mul nsw i32 %31, -100000
  %32 = add nsw i32 %narrow.neg67, -536885943
  br label %60

33:                                               ; preds = %27
  %34 = call i32 @wc_AesGcmEncrypt(ptr noundef nonnull %11, ptr noundef nonnull %15, ptr noundef %2, i32 noundef %3, ptr noundef nonnull %1, i32 noundef 12, ptr noundef nonnull %13, i32 noundef %9, ptr noundef %6, i32 noundef %7) #19
  %.not47 = icmp eq i32 %34, 0
  br i1 %.not47, label %39, label %35

35:                                               ; preds = %33
  %36 = sub nsw i32 0, %34
  %37 = and i32 %36, 2047
  %narrow.neg64 = mul nsw i32 %37, -100000
  %38 = add nsw i32 %narrow.neg64, -536885952
  br label %60

39:                                               ; preds = %33
  %.not48 = icmp eq ptr %4, null
  br i1 %.not48, label %42, label %40

40:                                               ; preds = %39
  %41 = zext nneg i32 %5 to i64
  %bcmp = call i32 @bcmp(ptr nonnull %4, ptr nonnull %15, i64 %41)
  %.not49 = icmp eq i32 %bcmp, 0
  br i1 %.not49, label %42, label %60

42:                                               ; preds = %40, %39
  %43 = zext nneg i32 %9 to i64
  %bcmp50 = call i32 @bcmp(ptr noundef nonnull dereferenceable(1) %8, ptr noundef nonnull dereferenceable(1) %13, i64 %43)
  %.not51 = icmp eq i32 %bcmp50, 0
  br i1 %.not51, label %44, label %60

44:                                               ; preds = %42
  %45 = call i32 @wc_AesGcmSetKey(ptr noundef nonnull %12, ptr noundef nonnull %0, i32 noundef 16) #19
  %.not52 = icmp eq i32 %45, 0
  br i1 %.not52, label %50, label %46

46:                                               ; preds = %44
  %47 = sub nsw i32 0, %45
  %48 = and i32 %47, 2047
  %narrow.neg61 = mul nsw i32 %48, -100000
  %49 = add nsw i32 %narrow.neg61, -536885981
  br label %60

50:                                               ; preds = %44
  %51 = call i32 @wc_AesGcmDecrypt(ptr noundef nonnull %12, ptr noundef nonnull %14, ptr noundef nonnull %15, i32 noundef %5, ptr noundef nonnull %1, i32 noundef 12, ptr noundef nonnull %13, i32 noundef %9, ptr noundef %6, i32 noundef %7) #19
  %.not53 = icmp eq i32 %51, 0
  br i1 %.not53, label %56, label %52

52:                                               ; preds = %50
  %53 = sub nsw i32 0, %51
  %54 = and i32 %53, 2047
  %narrow.neg = mul nsw i32 %54, -100000
  %55 = add nsw i32 %narrow.neg, -536885989
  br label %60

56:                                               ; preds = %50
  %.not54 = icmp eq ptr %2, null
  br i1 %.not54, label %59, label %57

57:                                               ; preds = %56
  %58 = zext nneg i32 %3 to i64
  %bcmp55 = call i32 @bcmp(ptr nonnull %2, ptr nonnull %14, i64 %58)
  %.not56 = icmp eq i32 %bcmp55, 0
  br i1 %.not56, label %59, label %60

59:                                               ; preds = %57, %56
  br label %60

60:                                               ; preds = %57, %42, %40, %59, %52, %46, %35, %29, %23, %17
  %.0 = phi i32 [ %20, %17 ], [ %26, %23 ], [ %32, %29 ], [ %38, %35 ], [ %49, %46 ], [ %55, %52 ], [ 0, %59 ], [ -15043, %40 ], [ -15046, %42 ], [ -15080, %57 ]
  call void @wc_AesFree(ptr noundef nonnull %11) #19
  call void @wc_AesFree(ptr noundef nonnull %12) #19
  call void @llvm.lifetime.end.p0(i64 48, ptr nonnull %15) #19
  call void @llvm.lifetime.end.p0(i64 48, ptr nonnull %14) #19
  call void @llvm.lifetime.end.p0(i64 16, ptr nonnull %13) #19
  call void @llvm.lifetime.end.p0(i64 848, ptr nonnull %12) #19
  call void @llvm.lifetime.end.p0(i64 848, ptr nonnull %11) #19
  ret i32 %.0
}